target datalayout = "e-m:e-p270:32:32-p271:32:32-p272:64:64-i64:64-i128:128-f80:128-n8:16:32:64-S128"
target triple = "x86_64-pc-linux-gnu"

%struct.darktable_t = type { %struct.dt_codepath_t, i32, i32, ptr, ptr, ptr, ptr, ptr, ptr, ptr, ptr, ptr, ptr, ptr, ptr, ptr, ptr, ptr, ptr, ptr, ptr, ptr, ptr, ptr, ptr, ptr, ptr, ptr, ptr, ptr, [64 x %struct.dt_pthread_mutex_t], %struct.dt_pthread_mutex_t, %struct.dt_pthread_mutex_t, %struct.dt_pthread_mutex_t, %struct.dt_pthread_mutex_t, %struct.dt_pthread_mutex_t, ptr, ptr, ptr, ptr, ptr, ptr, ptr, ptr, ptr, ptr, ptr, ptr, ptr, %struct.dt_lua_state_t, ptr, double, ptr, i32, [47 x i32], i32, i32, ptr, ptr, %struct.dt_sys_resources_t, %struct.dt_backthumb_t, %struct.dt_gimp_t }
%struct.dt_codepath_t = type { i8, [3 x i8] }
%struct.dt_pthread_mutex_t = type { %union.pthread_mutex_t }
%union.pthread_mutex_t = type { %struct.__pthread_mutex_s }
%struct.__pthread_mutex_s = type { i32, i32, i32, i32, i32, i16, i16, %struct.__pthread_internal_list }
%struct.__pthread_internal_list = type { ptr, ptr }
%struct.dt_lua_state_t = type { i32 }
%struct.dt_sys_resources_t = type { i64, i64, ptr, ptr, i32 }
%struct.dt_backthumb_t = type { double, double, i32, i32, i32, i32 }
%struct.dt_gimp_t = type { i32, ptr, ptr, i32, i32 }
%struct._GdkRGBA = type { double, double, double, double }
%struct.dt_gui_gtk_t = type { ptr, %struct.dt_gui_widgets_t, %struct.dt_gui_scrollbars_t, i32, ptr, i32, [39 x %struct._GdkRGBA], i32, i32, i32, i32, i32, double, double, double, double, ptr, double, double, double, double, i32, i32, [4096 x i8], i32, i32, i32, %struct.dt_pthread_mutex_t }
%struct.dt_gui_widgets_t = type { ptr, ptr, ptr, ptr, i32, i32, i32 }
%struct.dt_gui_scrollbars_t = type { ptr, ptr, i32 }
%struct._GTypeInstance = type { ptr }
%struct._GTypeClass = type { i64 }
%struct._GtkBorder = type { i16, i16, i16, i16 }

@darktable = external global %struct.darktable_t, align 8

; Function Attrs: nounwind uwtable
define internal i32 @_resize_wrap_draw(ptr noundef %0, ptr noundef %1, ptr noundef %2) #0 {
  %4 = alloca ptr, align 8
  %5 = alloca ptr, align 8
  %6 = alloca ptr, align 8
  %7 = alloca ptr, align 8
  %8 = alloca ptr, align 8
  %9 = alloca i64, align 8
  %10 = alloca i32, align 4
  %11 = alloca i32, align 4
  %12 = alloca i32, align 4
  %13 = alloca i32, align 4
  %14 = alloca i32, align 4
  %15 = alloca i32, align 4
  %16 = alloca i32, align 4
  %17 = alloca %struct._GtkBorder, align 2
  %18 = alloca %struct._GtkBorder, align 2
  %19 = alloca i32, align 4
  %20 = alloca i32, align 4
  %21 = alloca ptr, align 8
  %22 = alloca i32, align 4
  store ptr %0, ptr %4, align 8, !tbaa !6
  store ptr %1, ptr %5, align 8, !tbaa !99
  store ptr %2, ptr %6, align 8, !tbaa !11
  call void @llvm.lifetime.start.p0(i64 8, ptr %7) #15
  %23 = load ptr, ptr %4, align 8, !tbaa !6
  %24 = call ptr @gtk_widget_get_parent(ptr noundef %23)
  store ptr %24, ptr %7, align 8, !tbaa !6
  call void @llvm.lifetime.start.p0(i64 8, ptr %8) #15
  %25 = load ptr, ptr %7, align 8, !tbaa !6
  store ptr %25, ptr %8, align 8, !tbaa !225
  call void @llvm.lifetime.start.p0(i64 8, ptr %9) #15
  %26 = call i64 @gtk_viewport_get_type() #16
  store i64 %26, ptr %9, align 8, !tbaa !227
  call void @llvm.lifetime.start.p0(i64 4, ptr %10) #15
  %27 = load ptr, ptr %8, align 8, !tbaa !225
  %28 = icmp ne ptr %27, null
  br i1 %28, label %30, label %29

29:                                               ; preds = %3
  store i32 0, ptr %10, align 4, !tbaa !17
  br label %49

30:                                               ; preds = %3
  %31 = load ptr, ptr %8, align 8, !tbaa !225
  %32 = getelementptr inbounds nuw %struct._GTypeInstance, ptr %31, i32 0, i32 0
  %33 = load ptr, ptr %32, align 8, !tbaa !228
  %34 = icmp ne ptr %33, null
  br i1 %34, label %35, label %44

35:                                               ; preds = %30
  %36 = load ptr, ptr %8, align 8, !tbaa !225
  %37 = getelementptr inbounds nuw %struct._GTypeInstance, ptr %36, i32 0, i32 0
  %38 = load ptr, ptr %37, align 8, !tbaa !228
  %39 = getelementptr inbounds nuw %struct._GTypeClass, ptr %38, i32 0, i32 0
  %40 = load i64, ptr %39, align 8, !tbaa !231
  %41 = load i64, ptr %9, align 8, !tbaa !227
  %42 = icmp eq i64 %40, %41
  br i1 %42, label %43, label %44

43:                                               ; preds = %35
  store i32 1, ptr %10, align 4, !tbaa !17
  br label %48

44:                                               ; preds = %35, %30
  %45 = load ptr, ptr %8, align 8, !tbaa !225
  %46 = load i64, ptr %9, align 8, !tbaa !227
  %47 = call i32 @g_type_check_instance_is_a(ptr noundef %45, i64 noundef %46) #18
  store i32 %47, ptr %10, align 4, !tbaa !17
  br label %48

48:                                               ; preds = %44, %43
  br label %49

49:                                               ; preds = %48, %29
  %50 = load i32, ptr %10, align 4, !tbaa !17
  store i32 %50, ptr %11, align 4, !tbaa !17
  call void @llvm.lifetime.end.p0(i64 4, ptr %10) #15
  call void @llvm.lifetime.end.p0(i64 8, ptr %9) #15
  call void @llvm.lifetime.end.p0(i64 8, ptr %8) #15
  %51 = load i32, ptr %11, align 4, !tbaa !17
  %52 = icmp ne i32 %51, 0
  br i1 %52, label %53, label %56

53:                                               ; preds = %49
  %54 = load ptr, ptr %7, align 8, !tbaa !6
  %55 = call ptr @gtk_widget_get_parent(ptr noundef %54)
  store ptr %55, ptr %7, align 8, !tbaa !6
  br label %56

56:                                               ; preds = %53, %49
  call void @llvm.lifetime.start.p0(i64 4, ptr %12) #15
  %57 = load ptr, ptr %4, align 8, !tbaa !6
  %58 = call i32 @_get_container_row_heigth(ptr noundef %57)
  store i32 %58, ptr %12, align 4, !tbaa !17
  call void @llvm.lifetime.start.p0(i64 4, ptr %13) #15
  %59 = load ptr, ptr %6, align 8, !tbaa !11
  %60 = call i32 @dt_conf_get_int(ptr noundef %59)
  store i32 %60, ptr %13, align 4, !tbaa !17
  call void @llvm.lifetime.start.p0(i64 4, ptr %14) #15
  %61 = load ptr, ptr getelementptr inbounds nuw (%struct.darktable_t, ptr @darktable, i32 0, i32 14), align 8, !tbaa !24
  %62 = getelementptr inbounds nuw %struct.dt_gui_gtk_t, ptr %61, i32 0, i32 18
  %63 = load double, ptr %62, align 8, !tbaa !144
  %64 = fmul reassoc nsz arcp contract afn double 1.000000e+03, %63
  %65 = fptosi double %64 to i32
  store i32 %65, ptr %14, align 4, !tbaa !17
  %66 = load i32, ptr %13, align 4, !tbaa !17
  %67 = icmp slt i32 %66, 1
  br i1 %67, label %68, label %69

68:                                               ; preds = %56
  br label %79

69:                                               ; preds = %56
  %70 = load i32, ptr %13, align 4, !tbaa !17
  %71 = load i32, ptr %14, align 4, !tbaa !17
  %72 = icmp sgt i32 %70, %71
  br i1 %72, label %73, label %75

73:                                               ; preds = %69
  %74 = load i32, ptr %14, align 4, !tbaa !17
  br label %77

75:                                               ; preds = %69
  %76 = load i32, ptr %13, align 4, !tbaa !17
  br label %77

77:                                               ; preds = %75, %73
  %78 = phi i32 [ %74, %73 ], [ %76, %75 ]
  br label %79

79:                                               ; preds = %77, %68
  %80 = phi i32 [ 1, %68 ], [ %78, %77 ]
  store i32 %80, ptr %13, align 4, !tbaa !17
  %81 = load ptr, ptr %6, align 8, !tbaa !11
  %82 = load i32, ptr %13, align 4, !tbaa !17
  call void @dt_conf_set_int(ptr noundef %81, i32 noundef %82)
  call void @llvm.lifetime.start.p0(i64 4, ptr %15) #15
  %83 = load ptr, ptr %4, align 8, !tbaa !6
  call void @gtk_widget_get_preferred_height(ptr noundef %83, ptr noundef null, ptr noundef %15)
  call void @llvm.lifetime.start.p0(i64 4, ptr %16) #15
  %84 = load ptr, ptr %7, align 8, !tbaa !6
  %85 = call i64 @gtk_scrolled_window_get_type() #16
  %86 = call ptr @g_type_check_instance_cast(ptr noundef %84, i64 noundef %85)
  %87 = call i32 @gtk_scrolled_window_get_min_content_height(ptr noundef %86)
  %88 = sub nsw i32 0, %87
  store i32 %88, ptr %16, align 4, !tbaa !17
  %89 = load i32, ptr %15, align 4, !tbaa !17
  %90 = load i32, ptr %16, align 4, !tbaa !17
  %91 = icmp slt i32 %89, %90
  br i1 %91, label %92, label %94

92:                                               ; preds = %79
  %93 = load i32, ptr %16, align 4, !tbaa !17
  store i32 %93, ptr %15, align 4, !tbaa !17
  br label %94

94:                                               ; preds = %92, %79
  %95 = load i32, ptr %13, align 4, !tbaa !17
  %96 = load i32, ptr %15, align 4, !tbaa !17
  %97 = icmp sgt i32 %95, %96
  br i1 %97, label %98, label %100

98:                                               ; preds = %94
  %99 = load i32, ptr %15, align 4, !tbaa !17
  store i32 %99, ptr %13, align 4, !tbaa !17
  br label %100

100:                                              ; preds = %98, %94
  %101 = load i32, ptr %12, align 4, !tbaa !17
  %102 = sub nsw i32 %101, 1
  %103 = load i32, ptr %13, align 4, !tbaa !17
  %104 = add nsw i32 %103, %102
  store i32 %104, ptr %13, align 4, !tbaa !17
  %105 = load i32, ptr %13, align 4, !tbaa !17
  %106 = load i32, ptr %12, align 4, !tbaa !17
  %107 = srem i32 %105, %106
  %108 = load i32, ptr %13, align 4, !tbaa !17
  %109 = sub nsw i32 %108, %107
  store i32 %109, ptr %13, align 4, !tbaa !17
  call void @llvm.lifetime.start.p0(i64 8, ptr %17) #15
  call void @llvm.lifetime.start.p0(i64 8, ptr %18) #15
  %110 = load ptr, ptr %4, align 8, !tbaa !6
  %111 = call ptr @gtk_widget_get_style_context(ptr noundef %110)
  %112 = load ptr, ptr %4, align 8, !tbaa !6
  %113 = call i32 @gtk_widget_get_state_flags(ptr noundef %112)
  call void @gtk_style_context_get_padding(ptr noundef %111, i32 noundef %113, ptr noundef %17)
  %114 = load ptr, ptr %7, align 8, !tbaa !6
  %115 = call ptr @gtk_widget_get_style_context(ptr noundef %114)
  %116 = load ptr, ptr %7, align 8, !tbaa !6
  %117 = call i32 @gtk_widget_get_state_flags(ptr noundef %116)
  call void @gtk_style_context_get_margin(ptr noundef %115, i32 noundef %117, ptr noundef %18)
  call void @llvm.lifetime.start.p0(i64 4, ptr %19) #15
  store i32 0, ptr %19, align 4, !tbaa !17
  %118 = load ptr, ptr %7, align 8, !tbaa !6
  call void @gtk_widget_get_size_request(ptr noundef %118, ptr noundef null, ptr noundef %19)
  call void @llvm.lifetime.start.p0(i64 4, ptr %20) #15
  %119 = load i32, ptr %13, align 4, !tbaa !17
  %120 = getelementptr inbounds nuw %struct._GtkBorder, ptr %17, i32 0, i32 2
  %121 = load i16, ptr %120, align 2, !tbaa !314
  %122 = sext i16 %121 to i32
  %123 = add nsw i32 %119, %122
  %124 = getelementptr inbounds nuw %struct._GtkBorder, ptr %17, i32 0, i32 3
  %125 = load i16, ptr %124, align 2, !tbaa !316
  %126 = sext i16 %125 to i32
  %127 = add nsw i32 %123, %126
  %128 = getelementptr inbounds nuw %struct._GtkBorder, ptr %18, i32 0, i32 2
  %129 = load i16, ptr %128, align 2, !tbaa !314
  %130 = sext i16 %129 to i32
  %131 = add nsw i32 %127, %130
  %132 = getelementptr inbounds nuw %struct._GtkBorder, ptr %18, i32 0, i32 3
  %133 = load i16, ptr %132, align 2, !tbaa !316
  %134 = sext i16 %133 to i32
  %135 = add nsw i32 %131, %134
  store i32 %135, ptr %20, align 4, !tbaa !17
  %136 = load i32, ptr %20, align 4, !tbaa !17
  %137 = load i32, ptr %19, align 4, !tbaa !17
  %138 = icmp ne i32 %136, %137
  br i1 %138, label %139, label %157

139:                                              ; preds = %100
  %140 = load ptr, ptr %7, align 8, !tbaa !6
  %141 = load i32, ptr %20, align 4, !tbaa !17
  call void @gtk_widget_set_size_request(ptr noundef %140, i32 noundef -1, i32 noundef %141)
  call void @llvm.lifetime.start.p0(i64 8, ptr %21) #15
  %142 = load ptr, ptr %7, align 8, !tbaa !6
  %143 = call i64 @gtk_scrolled_window_get_type() #16
  %144 = call ptr @g_type_check_instance_cast(ptr noundef %142, i64 noundef %143)
  %145 = call ptr @gtk_scrolled_window_get_vadjustment(ptr noundef %144)
  store ptr %145, ptr %21, align 8, !tbaa !171
  call void @llvm.lifetime.start.p0(i64 4, ptr %22) #15
  %146 = load ptr, ptr %21, align 8, !tbaa !171
  %147 = call reassoc nsz arcp contract afn double @gtk_adjustment_get_value(ptr noundef %146)
  %148 = fptosi double %147 to i32
  store i32 %148, ptr %22, align 4, !tbaa !17
  %149 = load i32, ptr %22, align 4, !tbaa !17
  %150 = load i32, ptr %12, align 4, !tbaa !17
  %151 = srem i32 %149, %150
  %152 = load i32, ptr %22, align 4, !tbaa !17
  %153 = sub nsw i32 %152, %151
  store i32 %153, ptr %22, align 4, !tbaa !17
  %154 = load ptr, ptr %21, align 8, !tbaa !171
  %155 = load i32, ptr %22, align 4, !tbaa !17
  %156 = sitofp i32 %155 to double
  call void @gtk_adjustment_set_value(ptr noundef %154, double noundef %156)
  call void @llvm.lifetime.end.p0(i64 4, ptr %22) #15
  call void @llvm.lifetime.end.p0(i64 8, ptr %21) #15
  br label %157

157:                                              ; preds = %139, %100
  call void @llvm.lifetime.end.p0(i64 4, ptr %20) #15
  call void @llvm.lifetime.end.p0(i64 4, ptr %19) #15
  call void @llvm.lifetime.end.p0(i64 8, ptr %18) #15
  call void @llvm.lifetime.end.p0(i64 8, ptr %17) #15
  call void @llvm.lifetime.end.p0(i64 4, ptr %16) #15
  call void @llvm.lifetime.end.p0(i64 4, ptr %15) #15
  call void @llvm.lifetime.end.p0(i64 4, ptr %14) #15
  call void @llvm.lifetime.end.p0(i64 4, ptr %13) #15
  call void @llvm.lifetime.end.p0(i64 4, ptr %12) #15
  call void @llvm.lifetime.end.p0(i64 8, ptr %7) #15
  ret i32 0
}