; Function Attrs: nounwind uwtable
define internal noundef i32 @_resize_wrap_draw(ptr noundef %0, ptr readnone captures(none) %1, ptr noundef %2) #0 {
  %4 = alloca i32, align 4
  %5 = alloca %struct._GtkBorder, align 2
  %6 = alloca %struct._GtkBorder, align 2
  %7 = alloca i32, align 4
  %8 = tail call ptr @gtk_widget_get_parent(ptr noundef %0) #18
  %9 = tail call i64 @gtk_viewport_get_type() #19
  %.not = icmp eq ptr %8, null
  br i1 %.not, label %.critedge, label %10

10:                                               ; preds = %3
  %11 = load ptr, ptr %8, align 8, !tbaa !77
  %.not54 = icmp eq ptr %11, null
  br i1 %.not54, label %15, label %12

12:                                               ; preds = %10
  %13 = load i64, ptr %11, align 8, !tbaa !80
  %14 = icmp eq i64 %13, %9
  br i1 %14, label %.critedge58, label %15

15:                                               ; preds = %12, %10
  %16 = tail call i32 @g_type_check_instance_is_a(ptr noundef nonnull %8, i64 noundef %9) #20
  %17 = icmp eq i32 %16, 0
  br i1 %17, label %.critedge, label %.critedge58

.critedge58:                                      ; preds = %12, %15
  %18 = tail call ptr @gtk_widget_get_parent(ptr noundef nonnull %8) #18
  br label %.critedge

.critedge:                                        ; preds = %3, %.critedge58, %15
  %.0 = phi ptr [ %18, %.critedge58 ], [ %8, %15 ], [ null, %3 ]
  %19 = tail call fastcc i32 @_get_container_row_heigth(ptr noundef %0)
  %20 = tail call i32 @dt_conf_get_int(ptr noundef %2) #18
  %21 = icmp slt i32 %20, 1
  br i1 %21, label %29, label %22

22:                                               ; preds = %.critedge
  %23 = load ptr, ptr getelementptr inbounds nuw (i8, ptr @darktable, i64 104), align 8, !tbaa !15
  %24 = getelementptr inbounds nuw i8, ptr %23, i64 1424
  %25 = load double, ptr %24, align 8, !tbaa !105
  %26 = fmul reassoc nsz arcp contract afn double %25, 1.000000e+03
  %27 = fptosi double %26 to i32
  %28 = tail call i32 @llvm.smin.i32(i32 %20, i32 %27)
  br label %29

29:                                               ; preds = %.critedge, %22
  %30 = phi i32 [ %28, %22 ], [ 1, %.critedge ]
  tail call void @dt_conf_set_int(ptr noundef %2, i32 noundef %30) #18
  call void @llvm.lifetime.start.p0(i64 4, ptr nonnull %4) #18
  call void @gtk_widget_get_preferred_height(ptr noundef %0, ptr noundef null, ptr noundef nonnull %4) #18
  %31 = tail call i64 @gtk_scrolled_window_get_type() #19
  %32 = call ptr @g_type_check_instance_cast(ptr noundef %.0, i64 noundef %31) #18
  %33 = call i32 @gtk_scrolled_window_get_min_content_height(ptr noundef %32) #18
  %34 = sub nsw i32 0, %33
  %35 = load i32, ptr %4, align 4, !tbaa !62
  %36 = icmp slt i32 %35, %34
  br i1 %36, label %37, label %38

37:                                               ; preds = %29
  store i32 %34, ptr %4, align 4, !tbaa !62
  br label %38

38:                                               ; preds = %37, %29
  %39 = phi i32 [ %34, %37 ], [ %35, %29 ]
  %spec.select = call i32 @llvm.smin.i32(i32 %30, i32 %39)
  %40 = add nsw i32 %19, -1
  %41 = add nsw i32 %40, %spec.select
  %42 = srem i32 %41, %19
  %43 = sub i32 %41, %42
  call void @llvm.lifetime.start.p0(i64 8, ptr nonnull %5) #18
  call void @llvm.lifetime.start.p0(i64 8, ptr nonnull %6) #18
  %44 = call ptr @gtk_widget_get_style_context(ptr noundef %0) #18
  %45 = call i32 @gtk_widget_get_state_flags(ptr noundef %0) #18
  call void @gtk_style_context_get_padding(ptr noundef %44, i32 noundef %45, ptr noundef nonnull %5) #18
  %46 = call ptr @gtk_widget_get_style_context(ptr noundef %.0) #18
  %47 = call i32 @gtk_widget_get_state_flags(ptr noundef %.0) #18
  call void @gtk_style_context_get_margin(ptr noundef %46, i32 noundef %47, ptr noundef nonnull %6) #18
  call void @llvm.lifetime.start.p0(i64 4, ptr nonnull %7) #18
  store i32 0, ptr %7, align 4, !tbaa !62
  call void @gtk_widget_get_size_request(ptr noundef %.0, ptr noundef null, ptr noundef nonnull %7) #18
  %48 = getelementptr inbounds nuw i8, ptr %5, i64 4
  %49 = load i16, ptr %48, align 2, !tbaa !241
  %50 = sext i16 %49 to i32
  %51 = add nsw i32 %43, %50
  %52 = getelementptr inbounds nuw i8, ptr %5, i64 6
  %53 = load i16, ptr %52, align 2, !tbaa !243
  %54 = sext i16 %53 to i32
  %55 = add nsw i32 %51, %54
  %56 = getelementptr inbounds nuw i8, ptr %6, i64 4
  %57 = load i16, ptr %56, align 2, !tbaa !241
  %58 = sext i16 %57 to i32
  %59 = add nsw i32 %55, %58
  %60 = getelementptr inbounds nuw i8, ptr %6, i64 6
  %61 = load i16, ptr %60, align 2, !tbaa !243
  %62 = sext i16 %61 to i32
  %63 = add nsw i32 %59, %62
  %64 = load i32, ptr %7, align 4, !tbaa !62
  %.not56 = icmp eq i32 %63, %64
  br i1 %.not56, label %73, label %65

65:                                               ; preds = %38
  call void @gtk_widget_set_size_request(ptr noundef %.0, i32 noundef -1, i32 noundef %63) #18
  %66 = call ptr @g_type_check_instance_cast(ptr noundef %.0, i64 noundef %31) #18
  %67 = call ptr @gtk_scrolled_window_get_vadjustment(ptr noundef %66) #18
  %68 = call reassoc nsz arcp contract afn double @gtk_adjustment_get_value(ptr noundef %67) #18
  %69 = fptosi double %68 to i32
  %70 = srem i32 %69, %19
  %71 = sub nsw i32 %69, %70
  %72 = sitofp i32 %71 to double
  call void @gtk_adjustment_set_value(ptr noundef %67, double noundef %72) #18
  br label %73

73:                                               ; preds = %65, %38
  call void @llvm.lifetime.end.p0(i64 4, ptr nonnull %7) #18
  call void @llvm.lifetime.end.p0(i64 8, ptr nonnull %6) #18
  call void @llvm.lifetime.end.p0(i64 8, ptr nonnull %5) #18
  call void @llvm.lifetime.end.p0(i64 4, ptr nonnull %4) #18
  ret i32 0
}